target datalayout = "e-m:e-p270:32:32-p271:32:32-p272:64:64-i64:64-i128:128-f80:128-n8:16:32:64-S128"
target triple = "x86_64-pc-linux-gnu"

%struct._zend_executor_globals = type { %struct._zval_struct, %struct._zval_struct, [32 x ptr], ptr, ptr, %struct._zend_array, %struct._zend_array, ptr, i32, i32, ptr, ptr, ptr, ptr, ptr, ptr, i64, ptr, ptr, i32, i32, i64, i32, i32, i32, i8, i8, %struct.zend_atomic_bool_s, %struct.zend_atomic_bool_s, ptr, i64, ptr, ptr, %struct._zend_array, %struct._zend_array, i32, i8, %struct._zval_struct, %struct._zval_struct, %struct._zend_stack, %struct._zend_stack, %struct._zend_stack, ptr, i32, i32, i64, ptr, ptr, ptr, %struct._zend_objects_store, ptr, ptr, ptr, [3 x %struct._zend_op], ptr, i8, i8, i64, i32, i32, ptr, [16 x %struct._HashTableIterator], ptr, %union._zend_function, %struct._zend_op, %struct._zend_array, i64, %struct.zend_get_gc_buffer, ptr, ptr, ptr, i64, i8, i32, ptr, ptr, i64, %struct._zend_call_stack, i64, i64, [6 x ptr] }
%struct.zend_atomic_bool_s = type { i8 }
%struct._zval_struct = type { %union._zend_value, %union.anon.0, %union.anon.3 }
%union._zend_value = type { i64 }
%union.anon.0 = type { i32 }
%union.anon.3 = type { i32 }
%struct._zend_stack = type { i32, i32, i32, ptr }
%struct._zend_objects_store = type { ptr, i32, i32, i32 }
%struct._HashTableIterator = type { ptr, i32, i32 }
%union._zend_function = type { %struct._zend_op_array }
%struct._zend_op_array = type { i8, [3 x i8], i32, ptr, ptr, ptr, i32, i32, ptr, ptr, ptr, ptr, i32, i32, i32, i32, ptr, ptr, ptr, ptr, ptr, i32, i32, ptr, ptr, ptr, i32, i32, i32, i32, ptr, ptr, [6 x ptr] }
%struct._zend_op = type { ptr, %union._znode_op, %union._znode_op, %union._znode_op, i32, i32, i8, i8, i8, i8 }
%union._znode_op = type { i32 }
%struct._zend_array = type { %struct._zend_refcounted_h, %union.anon.5, i32, %union.anon.7, i32, i32, i32, i32, i64, ptr }
%struct._zend_refcounted_h = type { i32, %union.anon }
%union.anon = type { i32 }
%union.anon.5 = type { i32 }
%union.anon.7 = type { ptr }
%struct.zend_get_gc_buffer = type { ptr, ptr, ptr }
%struct._zend_call_stack = type { ptr, i64 }
%struct._zend_class_entry = type { i8, ptr, %union.anon.10, i32, i32, i32, i32, ptr, ptr, ptr, %struct._zend_array, %struct._zend_array, %struct._zend_array, ptr, ptr, ptr, ptr, ptr, ptr, ptr, ptr, ptr, ptr, ptr, ptr, ptr, ptr, ptr, ptr, ptr, ptr, ptr, %union.anon.11, ptr, ptr, ptr, ptr, i32, i32, %union.anon.12, ptr, ptr, ptr, ptr, i32, ptr, ptr, %union.anon.13 }
%union.anon.10 = type { ptr }
%union.anon.11 = type { ptr }
%union.anon.12 = type { ptr }
%union.anon.13 = type { %struct.anon.14 }
%struct.anon.14 = type { ptr, i32, i32 }
%struct._zend_string = type { %struct._zend_refcounted_h, i64, i64, [1 x i8] }
%struct._php_date_obj = type { ptr, %struct._zend_object }
%struct._zend_object = type { %struct._zend_refcounted_h, i32, ptr, ptr, ptr, [1 x %struct._zval_struct] }
%struct._zend_execute_data = type { ptr, ptr, ptr, ptr, %struct._zval_struct, ptr, ptr, ptr, ptr }

@date_ce_immutable = hidden global ptr null, align 8
@date_ce_interface = hidden global ptr null, align 8
@executor_globals = external global %struct._zend_executor_globals, align 8
@date_ce_date_object_error = hidden global ptr null, align 8
@.str.383 = private unnamed_addr constant [105 x i8] c"Object of type %s has not been correctly initialized by calling parent::__construct() in its constructor\00", align 1
@.str.384 = private unnamed_addr constant [101 x i8] c"Object of type %s not been correctly initialized by calling parent::__construct() in its constructor\00", align 1
@.str.385 = private unnamed_addr constant [121 x i8] c"Object of type %s (inheriting %s) has not been correctly initialized by calling parent::__construct() in its constructor\00", align 1

; Function Attrs: nounwind uwtable
define ptr @php_date_instantiate(ptr noundef %0, ptr noundef %1) #0 {
  %3 = alloca ptr, align 8
  %4 = alloca ptr, align 8
  store ptr %0, ptr %3, align 8
  store ptr %1, ptr %4, align 8
  %5 = load ptr, ptr %4, align 8
  %6 = load ptr, ptr %3, align 8
  %7 = call i32 @object_init_ex(ptr noundef %5, ptr noundef %6)
  %8 = load ptr, ptr %4, align 8
  ret ptr %8
}

; Function Attrs: nounwind uwtable
define internal void @date_throw_uninitialized_error(ptr noundef %0) #0 {
  %2 = alloca ptr, align 8
  %3 = alloca ptr, align 8
  store ptr %0, ptr %2, align 8
  %4 = load ptr, ptr %2, align 8
  %5 = getelementptr inbounds %struct._zend_class_entry, ptr %4, i32 0, i32 0
  %6 = load i8, ptr %5, align 8
  %7 = sext i8 %6 to i32
  %8 = icmp eq i32 %7, 1
  br i1 %8, label %9, label %16

9:                                                ; preds = %1
  %10 = load ptr, ptr @date_ce_date_object_error, align 8
  %11 = load ptr, ptr %2, align 8
  %12 = getelementptr inbounds %struct._zend_class_entry, ptr %11, i32 0, i32 1
  %13 = load ptr, ptr %12, align 8
  %14 = getelementptr inbounds %struct._zend_string, ptr %13, i32 0, i32 3
  %15 = getelementptr inbounds [1 x i8], ptr %14, i64 0, i64 0
  call void (ptr, ptr, ...) @zend_throw_error(ptr noundef %10, ptr noundef @.str.383, ptr noundef %15)
  br label %63

16:                                               ; preds = %1
  %17 = load ptr, ptr %2, align 8
  store ptr %17, ptr %3, align 8
  br label %18

18:                                               ; preds = %34, %16
  %19 = load ptr, ptr %3, align 8
  %20 = icmp ne ptr %19, null
  br i1 %20, label %21, label %32

21:                                               ; preds = %18
  %22 = load ptr, ptr %3, align 8
  %23 = getelementptr inbounds %struct._zend_class_entry, ptr %22, i32 0, i32 2
  %24 = load ptr, ptr %23, align 8
  %25 = icmp ne ptr %24, null
  br i1 %25, label %26, label %32

26:                                               ; preds = %21
  %27 = load ptr, ptr %3, align 8
  %28 = getelementptr inbounds %struct._zend_class_entry, ptr %27, i32 0, i32 0
  %29 = load i8, ptr %28, align 8
  %30 = sext i8 %29 to i32
  %31 = icmp eq i32 %30, 2
  br label %32

32:                                               ; preds = %26, %21, %18
  %33 = phi i1 [ false, %21 ], [ false, %18 ], [ %31, %26 ]
  br i1 %33, label %34, label %38

34:                                               ; preds = %32
  %35 = load ptr, ptr %3, align 8
  %36 = getelementptr inbounds %struct._zend_class_entry, ptr %35, i32 0, i32 2
  %37 = load ptr, ptr %36, align 8
  store ptr %37, ptr %3, align 8
  br label %18

38:                                               ; preds = %32
  %39 = load ptr, ptr %3, align 8
  %40 = getelementptr inbounds %struct._zend_class_entry, ptr %39, i32 0, i32 0
  %41 = load i8, ptr %40, align 8
  %42 = sext i8 %41 to i32
  %43 = icmp ne i32 %42, 1
  br i1 %43, label %44, label %51

44:                                               ; preds = %38
  %45 = load ptr, ptr @date_ce_date_object_error, align 8
  %46 = load ptr, ptr %2, align 8
  %47 = getelementptr inbounds %struct._zend_class_entry, ptr %46, i32 0, i32 1
  %48 = load ptr, ptr %47, align 8
  %49 = getelementptr inbounds %struct._zend_string, ptr %48, i32 0, i32 3
  %50 = getelementptr inbounds [1 x i8], ptr %49, i64 0, i64 0
  call void (ptr, ptr, ...) @zend_throw_error(ptr noundef %45, ptr noundef @.str.384, ptr noundef %50)
  br label %51

51:                                               ; preds = %44, %38
  %52 = load ptr, ptr @date_ce_date_object_error, align 8
  %53 = load ptr, ptr %2, align 8
  %54 = getelementptr inbounds %struct._zend_class_entry, ptr %53, i32 0, i32 1
  %55 = load ptr, ptr %54, align 8
  %56 = getelementptr inbounds %struct._zend_string, ptr %55, i32 0, i32 3
  %57 = getelementptr inbounds [1 x i8], ptr %56, i64 0, i64 0
  %58 = load ptr, ptr %3, align 8
  %59 = getelementptr inbounds %struct._zend_class_entry, ptr %58, i32 0, i32 1
  %60 = load ptr, ptr %59, align 8
  %61 = getelementptr inbounds %struct._zend_string, ptr %60, i32 0, i32 3
  %62 = getelementptr inbounds [1 x i8], ptr %61, i64 0, i64 0
  call void (ptr, ptr, ...) @zend_throw_error(ptr noundef %52, ptr noundef @.str.385, ptr noundef %57, ptr noundef %62)
  br label %63

63:                                               ; preds = %51, %9
  ret void
}

; Function Attrs: nounwind uwtable
define internal ptr @php_date_obj_from_obj(ptr noundef %0) #0 {
  %2 = alloca ptr, align 8
  store ptr %0, ptr %2, align 8
  %3 = load ptr, ptr %2, align 8
  %4 = getelementptr inbounds i8, ptr %3, i64 -8
  ret ptr %4
}

; Function Attrs: nounwind uwtable
define hidden void @zim_DateTimeImmutable_createFromInterface(ptr noundef %0, ptr noundef %1) #0 {
  %3 = alloca ptr, align 8
  %4 = alloca ptr, align 8
  %5 = alloca ptr, align 8
  %6 = alloca ptr, align 8
  %7 = alloca i1, align 1
  %8 = alloca ptr, align 8
  %9 = alloca ptr, align 8
  %10 = alloca ptr, align 8
  %11 = alloca i8, align 1
  %12 = alloca ptr, align 8
  %13 = alloca ptr, align 8
  %14 = alloca ptr, align 8
  %15 = alloca ptr, align 8
  %16 = alloca ptr, align 8
  %17 = alloca i32, align 4
  %18 = alloca i32, align 4
  %19 = alloca i32, align 4
  %20 = alloca i32, align 4
  %21 = alloca i32, align 4
  %22 = alloca ptr, align 8
  %23 = alloca ptr, align 8
  %24 = alloca i32, align 4
  %25 = alloca ptr, align 8
  %26 = alloca i8, align 1
  %27 = alloca i8, align 1
  %28 = alloca i32, align 4
  store ptr %0, ptr %12, align 8
  store ptr %1, ptr %13, align 8
  store ptr null, ptr %14, align 8
  store ptr null, ptr %15, align 8
  store ptr null, ptr %16, align 8
  br label %29

29:                                               ; preds = %2
  store i32 0, ptr %17, align 4
  store i32 1, ptr %18, align 4
  store i32 1, ptr %19, align 4
  %30 = load ptr, ptr %12, align 8
  %31 = getelementptr inbounds %struct._zend_execute_data, ptr %30, i32 0, i32 4
  %32 = getelementptr inbounds %struct._zval_struct, ptr %31, i32 0, i32 2
  %33 = load i32, ptr %32, align 4
  store i32 %33, ptr %20, align 4
  store i32 0, ptr %21, align 4
  store ptr null, ptr %23, align 8
  store i32 0, ptr %24, align 4
  store ptr null, ptr %25, align 8
  store i8 0, ptr %26, align 1
  store i8 0, ptr %27, align 1
  store i32 0, ptr %28, align 4
  br label %34

34:                                               ; preds = %29
  %35 = load i32, ptr %20, align 4
  %36 = load i32, ptr %18, align 4
  %37 = icmp ult i32 %35, %36
  %38 = xor i1 %37, true
  %39 = xor i1 %38, true
  %40 = zext i1 %39 to i32
  %41 = sext i32 %40 to i64
  %42 = icmp ne i64 %41, 0
  br i1 %42, label %52, label %43

43:                                               ; preds = %34
  %44 = load i32, ptr %20, align 4
  %45 = load i32, ptr %19, align 4
  %46 = icmp ugt i32 %44, %45
  %47 = xor i1 %46, true
  %48 = xor i1 %47, true
  %49 = zext i1 %48 to i32
  %50 = sext i32 %49 to i64
  %51 = icmp ne i64 %50, 0
  br i1 %51, label %52, label %55

52:                                               ; preds = %43, %34
  %53 = load i32, ptr %18, align 4
  %54 = load i32, ptr %19, align 4
  call void @zend_wrong_parameters_count_error(i32 noundef %53, i32 noundef %54)
  store i32 1, ptr %28, align 4
  br label %167

55:                                               ; preds = %43
  %56 = load ptr, ptr %12, align 8
  %57 = getelementptr inbounds %struct._zval_struct, ptr %56, i64 4
  store ptr %57, ptr %22, align 8
  %58 = load i32, ptr %21, align 4
  %59 = add i32 %58, 1
  store i32 %59, ptr %21, align 4
  %60 = load i32, ptr %21, align 4
  %61 = load i32, ptr %18, align 4
  %62 = icmp ule i32 %60, %61
  br i1 %62, label %68, label %63

63:                                               ; preds = %55
  %64 = load i8, ptr %27, align 1
  %65 = trunc i8 %64 to i1
  %66 = zext i1 %65 to i32
  %67 = icmp eq i32 %66, 1
  br label %68

68:                                               ; preds = %63, %55
  %69 = phi i1 [ true, %55 ], [ %67, %63 ]
  call void @llvm.assume(i1 %69)
  %70 = load i32, ptr %21, align 4
  %71 = load i32, ptr %18, align 4
  %72 = icmp ugt i32 %70, %71
  br i1 %72, label %78, label %73

73:                                               ; preds = %68
  %74 = load i8, ptr %27, align 1
  %75 = trunc i8 %74 to i1
  %76 = zext i1 %75 to i32
  %77 = icmp eq i32 %76, 0
  br label %78

78:                                               ; preds = %73, %68
  %79 = phi i1 [ true, %68 ], [ %77, %73 ]
  call void @llvm.assume(i1 %79)
  %80 = load i8, ptr %27, align 1
  %81 = trunc i8 %80 to i1
  br i1 %81, label %82, label %93

82:                                               ; preds = %78
  %83 = load i32, ptr %21, align 4
  %84 = load i32, ptr %20, align 4
  %85 = icmp ugt i32 %83, %84
  %86 = xor i1 %85, true
  %87 = xor i1 %86, true
  %88 = zext i1 %87 to i32
  %89 = sext i32 %88 to i64
  %90 = icmp ne i64 %89, 0
  br i1 %90, label %91, label %92

91:                                               ; preds = %82
  br label %167

92:                                               ; preds = %82
  br label %93

93:                                               ; preds = %92, %78
  %94 = load ptr, ptr %22, align 8
  %95 = getelementptr inbounds %struct._zval_struct, ptr %94, i32 1
  store ptr %95, ptr %22, align 8
  %96 = load ptr, ptr %22, align 8
  store ptr %96, ptr %23, align 8
  %97 = load ptr, ptr %23, align 8
  %98 = load ptr, ptr @date_ce_interface, align 8
  store ptr %97, ptr %8, align 8
  store ptr %14, ptr %9, align 8
  store ptr %98, ptr %10, align 8
  store i8 0, ptr %11, align 1
  %99 = load ptr, ptr %8, align 8
  store ptr %99, ptr %5, align 8
  %100 = load ptr, ptr %5, align 8
  %101 = getelementptr inbounds %struct._zval_struct, ptr %100, i32 0, i32 1
  %102 = load i8, ptr %101, align 8
  %103 = zext i8 %102 to i32
  %104 = icmp eq i32 %103, 8
  br i1 %104, label %105, label %126

105:                                              ; preds = %93
  %106 = load ptr, ptr %10, align 8
  %107 = icmp ne ptr %106, null
  br i1 %107, label %108, label %123

108:                                              ; preds = %105
  %109 = load ptr, ptr %8, align 8
  %110 = load ptr, ptr %109, align 8
  %111 = getelementptr inbounds %struct._zend_object, ptr %110, i32 0, i32 2
  %112 = load ptr, ptr %111, align 8
  %113 = load ptr, ptr %10, align 8
  store ptr %112, ptr %3, align 8
  store ptr %113, ptr %4, align 8
  %114 = load ptr, ptr %3, align 8
  %115 = load ptr, ptr %4, align 8
  %116 = icmp eq ptr %114, %115
  br i1 %116, label %121, label %117

117:                                              ; preds = %108
  %118 = load ptr, ptr %3, align 8
  %119 = load ptr, ptr %4, align 8
  %120 = call zeroext i1 @instanceof_function_slow(ptr noundef %118, ptr noundef %119) #13
  br label %121

121:                                              ; preds = %117, %108
  %122 = phi i1 [ true, %108 ], [ %120, %117 ]
  br i1 %122, label %123, label %126

123:                                              ; preds = %121, %105
  %124 = load ptr, ptr %8, align 8
  %125 = load ptr, ptr %9, align 8
  store ptr %124, ptr %125, align 8
  br label %139

126:                                              ; preds = %121, %93
  %127 = load i8, ptr %11, align 1
  %128 = trunc i8 %127 to i1
  br i1 %128, label %129, label %138

129:                                              ; preds = %126
  %130 = load ptr, ptr %8, align 8
  store ptr %130, ptr %6, align 8
  %131 = load ptr, ptr %6, align 8
  %132 = getelementptr inbounds %struct._zval_struct, ptr %131, i32 0, i32 1
  %133 = load i8, ptr %132, align 8
  %134 = zext i8 %133 to i32
  %135 = icmp eq i32 %134, 1
  br i1 %135, label %136, label %138

136:                                              ; preds = %129
  %137 = load ptr, ptr %9, align 8
  store ptr null, ptr %137, align 8
  br label %139

138:                                              ; preds = %129, %126
  store i1 false, ptr %7, align 1
  br label %140

139:                                              ; preds = %136, %123
  store i1 true, ptr %7, align 1
  br label %140

140:                                              ; preds = %139, %138
  %141 = load i1, ptr %7, align 1
  %142 = xor i1 %141, true
  %143 = xor i1 %142, true
  %144 = xor i1 %143, true
  %145 = zext i1 %144 to i32
  %146 = sext i32 %145 to i64
  %147 = icmp ne i64 %146, 0
  br i1 %147, label %148, label %158

148:                                              ; preds = %140
  %149 = load ptr, ptr @date_ce_interface, align 8
  %150 = icmp ne ptr %149, null
  br i1 %150, label %151, label %157

151:                                              ; preds = %148
  %152 = load ptr, ptr @date_ce_interface, align 8
  %153 = getelementptr inbounds %struct._zend_class_entry, ptr %152, i32 0, i32 1
  %154 = load ptr, ptr %153, align 8
  %155 = getelementptr inbounds %struct._zend_string, ptr %154, i32 0, i32 3
  %156 = getelementptr inbounds [1 x i8], ptr %155, i64 0, i64 0
  store ptr %156, ptr %25, align 8
  store i32 3, ptr %28, align 4
  br label %167

157:                                              ; preds = %148
  store i32 18, ptr %24, align 4
  store i32 9, ptr %28, align 4
  br label %167

158:                                              ; preds = %140
  %159 = load i32, ptr %21, align 4
  %160 = load i32, ptr %19, align 4
  %161 = icmp eq i32 %159, %160
  br i1 %161, label %165, label %162

162:                                              ; preds = %158
  %163 = load i32, ptr %19, align 4
  %164 = icmp eq i32 %163, -1
  br label %165

165:                                              ; preds = %162, %158
  %166 = phi i1 [ true, %158 ], [ %164, %162 ]
  call void @llvm.assume(i1 %166)
  br label %167

167:                                              ; preds = %165, %157, %151, %91, %52
  %168 = load i32, ptr %28, align 4
  %169 = icmp ne i32 %168, 0
  %170 = xor i1 %169, true
  %171 = xor i1 %170, true
  %172 = zext i1 %171 to i32
  %173 = sext i32 %172 to i64
  %174 = icmp ne i64 %173, 0
  br i1 %174, label %175, label %181

175:                                              ; preds = %167
  %176 = load i32, ptr %28, align 4
  %177 = load i32, ptr %21, align 4
  %178 = load ptr, ptr %25, align 8
  %179 = load i32, ptr %24, align 4
  %180 = load ptr, ptr %23, align 8
  call void @zend_wrong_parameter_error(i32 noundef %176, i32 noundef %177, ptr noundef %178, i32 noundef %179, ptr noundef %180)
  br label %228

181:                                              ; preds = %167
  br label %182

182:                                              ; preds = %181
  %183 = load ptr, ptr %14, align 8
  %184 = getelementptr inbounds %struct._zval_struct, ptr %183, i32 0, i32 0
  %185 = load ptr, ptr %184, align 8
  %186 = call ptr @php_date_obj_from_obj(ptr noundef %185)
  store ptr %186, ptr %16, align 8
  %187 = load ptr, ptr %16, align 8
  %188 = getelementptr inbounds %struct._php_date_obj, ptr %187, i32 0, i32 0
  %189 = load ptr, ptr %188, align 8
  %190 = icmp ne ptr %189, null
  br i1 %190, label %201, label %191

191:                                              ; preds = %182
  %192 = load ptr, ptr %14, align 8
  %193 = getelementptr inbounds %struct._zval_struct, ptr %192, i32 0, i32 0
  %194 = load ptr, ptr %193, align 8
  %195 = getelementptr inbounds %struct._zend_object, ptr %194, i32 0, i32 2
  %196 = load ptr, ptr %195, align 8
  call void @date_throw_uninitialized_error(ptr noundef %196)
  br label %197

197:                                              ; preds = %191
  %198 = load ptr, ptr getelementptr inbounds (%struct._zend_executor_globals, ptr @executor_globals, i32 0, i32 50), align 8
  %199 = icmp ne ptr %198, null
  call void @llvm.assume(i1 %199)
  br label %228

200:                                              ; No predecessors!
  br label %201

201:                                              ; preds = %200, %182
  %202 = load ptr, ptr %12, align 8
  %203 = getelementptr inbounds %struct._zend_execute_data, ptr %202, i32 0, i32 4
  %204 = getelementptr inbounds %struct._zval_struct, ptr %203, i32 0, i32 0
  %205 = load ptr, ptr %204, align 8
  %206 = icmp ne ptr %205, null
  br i1 %206, label %207, label %212

207:                                              ; preds = %201
  %208 = load ptr, ptr %12, align 8
  %209 = getelementptr inbounds %struct._zend_execute_data, ptr %208, i32 0, i32 4
  %210 = getelementptr inbounds %struct._zval_struct, ptr %209, i32 0, i32 0
  %211 = load ptr, ptr %210, align 8
  br label %214

212:                                              ; preds = %201
  %213 = load ptr, ptr @date_ce_immutable, align 8
  br label %214

214:                                              ; preds = %212, %207
  %215 = phi ptr [ %211, %207 ], [ %213, %212 ]
  %216 = load ptr, ptr %13, align 8
  %217 = call ptr @php_date_instantiate(ptr noundef %215, ptr noundef %216)
  %218 = load ptr, ptr %13, align 8
  %219 = getelementptr inbounds %struct._zval_struct, ptr %218, i32 0, i32 0
  %220 = load ptr, ptr %219, align 8
  %221 = call ptr @php_date_obj_from_obj(ptr noundef %220)
  store ptr %221, ptr %15, align 8
  %222 = load ptr, ptr %16, align 8
  %223 = getelementptr inbounds %struct._php_date_obj, ptr %222, i32 0, i32 0
  %224 = load ptr, ptr %223, align 8
  %225 = call ptr @timelib_time_clone(ptr noundef %224)
  %226 = load ptr, ptr %15, align 8
  %227 = getelementptr inbounds %struct._php_date_obj, ptr %226, i32 0, i32 0
  store ptr %225, ptr %227, align 8
  br label %228

228:                                              ; preds = %214, %197, %175
  ret void
}